target datalayout = "e-m:e-p270:32:32-p271:32:32-p272:64:64-i64:64-i128:128-f80:128-n8:16:32:64-S128"
target triple = "x86_64-pc-linux-gnu"

%struct.WalWriteMethodOps = type { ptr, ptr, ptr, ptr, ptr, ptr, ptr, ptr, ptr }
%struct.DirectoryMethodData = type { %struct.WalWriteMethod, ptr }
%struct.WalWriteMethod = type { ptr, i32, i32, i8, ptr, i32 }

@WalDirectoryMethodOps = internal constant %struct.WalWriteMethodOps { ptr @dir_open_for_write, ptr @dir_close, ptr @dir_existsfile, ptr @dir_get_file_size, ptr @dir_get_file_name, ptr @dir_write, ptr @dir_sync, ptr @dir_finish, ptr @dir_free }, align 8

; Function Attrs: nounwind uwtable
define dso_local ptr @CreateWalDirectoryMethod(ptr noundef %0, i32 noundef %1, i32 noundef %2, i1 noundef zeroext %3) #0 {
  %5 = alloca ptr, align 8
  %6 = alloca i32, align 4
  %7 = alloca i32, align 4
  %8 = alloca i8, align 1
  %9 = alloca ptr, align 8
  store ptr %0, ptr %5, align 8
  store i32 %1, ptr %6, align 4
  store i32 %2, ptr %7, align 4
  %10 = zext i1 %3 to i8
  store i8 %10, ptr %8, align 1
  call void @llvm.lifetime.start.p0(i64 8, ptr %9) #9
  %11 = call ptr @pg_malloc0(i64 noundef 48)
  store ptr %11, ptr %9, align 8
  %12 = load ptr, ptr %9, align 8
  %13 = getelementptr inbounds nuw %struct.DirectoryMethodData, ptr %12, i32 0, i32 0
  %14 = getelementptr inbounds nuw %struct.WalWriteMethod, ptr %13, i32 0, i32 0
  store ptr @WalDirectoryMethodOps, ptr %14, align 8
  %15 = load i32, ptr %6, align 4
  %16 = load ptr, ptr %9, align 8
  %17 = getelementptr inbounds nuw %struct.DirectoryMethodData, ptr %16, i32 0, i32 0
  %18 = getelementptr inbounds nuw %struct.WalWriteMethod, ptr %17, i32 0, i32 1
  store i32 %15, ptr %18, align 8
  %19 = load i32, ptr %7, align 4
  %20 = load ptr, ptr %9, align 8
  %21 = getelementptr inbounds nuw %struct.DirectoryMethodData, ptr %20, i32 0, i32 0
  %22 = getelementptr inbounds nuw %struct.WalWriteMethod, ptr %21, i32 0, i32 2
  store i32 %19, ptr %22, align 4
  %23 = load i8, ptr %8, align 1, !range !4, !noundef !5
  %24 = trunc i8 %23 to i1
  %25 = load ptr, ptr %9, align 8
  %26 = getelementptr inbounds nuw %struct.DirectoryMethodData, ptr %25, i32 0, i32 0
  %27 = getelementptr inbounds nuw %struct.WalWriteMethod, ptr %26, i32 0, i32 3
  %28 = zext i1 %24 to i8
  store i8 %28, ptr %27, align 8
  %29 = load ptr, ptr %9, align 8
  %30 = getelementptr inbounds nuw %struct.DirectoryMethodData, ptr %29, i32 0, i32 0
  %31 = getelementptr inbounds nuw %struct.WalWriteMethod, ptr %30, i32 0, i32 4
  store ptr null, ptr %31, align 8
  %32 = load ptr, ptr %9, align 8
  %33 = getelementptr inbounds nuw %struct.DirectoryMethodData, ptr %32, i32 0, i32 0
  %34 = getelementptr inbounds nuw %struct.WalWriteMethod, ptr %33, i32 0, i32 5
  store i32 0, ptr %34, align 8
  %35 = load ptr, ptr %5, align 8
  %36 = call ptr @pg_strdup(ptr noundef %35)
  %37 = load ptr, ptr %9, align 8
  %38 = getelementptr inbounds nuw %struct.DirectoryMethodData, ptr %37, i32 0, i32 1
  store ptr %36, ptr %38, align 8
  %39 = load ptr, ptr %9, align 8
  %40 = getelementptr inbounds nuw %struct.DirectoryMethodData, ptr %39, i32 0, i32 0
  call void @llvm.lifetime.end.p0(i64 8, ptr %9) #9
  ret ptr %40
}