; Function Attrs: nounwind uwtable
define dso_local noundef ptr @CreateWalDirectoryMethod(ptr noundef %0, i32 noundef %1, i32 noundef %2, i1 noundef zeroext %3) local_unnamed_addr #0 {
  %5 = zext i1 %3 to i8
  %6 = tail call ptr @pg_malloc0(i64 noundef 48) #12
  store ptr @WalDirectoryMethodOps, ptr %6, align 8
  %7 = getelementptr inbounds nuw i8, ptr %6, i64 8
  store i32 %1, ptr %7, align 8
  %8 = getelementptr inbounds nuw i8, ptr %6, i64 12
  store i32 %2, ptr %8, align 4
  %9 = getelementptr inbounds nuw i8, ptr %6, i64 16
  store i8 %5, ptr %9, align 8
  %10 = getelementptr inbounds nuw i8, ptr %6, i64 24
  store ptr null, ptr %10, align 8
  %11 = getelementptr inbounds nuw i8, ptr %6, i64 32
  store i32 0, ptr %11, align 8
  %12 = tail call ptr @pg_strdup(ptr noundef %0) #12
  %13 = getelementptr inbounds nuw i8, ptr %6, i64 40
  store ptr %12, ptr %13, align 8
  ret ptr %6
}